; Function Attrs: mustprogress uwtable
define noundef zeroext i1 @_ZNK11OpenImageIO6v3_1_011ColorConfig18isColorSpaceLinearENS0_17basic_string_viewIcSt11char_traitsIcEEE(ptr noundef nonnull readonly align 8 captures(none) dereferenceable(8) %0, ptr noundef readonly captures(none) %1) local_unnamed_addr #5 align 2 {
  %3 = alloca %"class.OpenImageIO::v3_1_0::basic_string_view", align 8
  %4 = load ptr, ptr %0, align 8, !tbaa !140
  %5 = load ptr, ptr %1, align 8, !tbaa !4
  store ptr %5, ptr %3, align 8, !tbaa !4
  %6 = getelementptr inbounds nuw i8, ptr %3, i64 8
  %7 = getelementptr inbounds nuw i8, ptr %1, i64 8
  %8 = load i64, ptr %7, align 8, !tbaa !11
  store i64 %8, ptr %6, align 8, !tbaa !11
  %9 = call noundef zeroext i1 @_ZNK11OpenImageIO6v3_1_011ColorConfig4Impl18isColorSpaceLinearENS0_17basic_string_viewIcSt11char_traitsIcEEE(ptr noundef nonnull align 8 dereferenceable(385) %4, ptr noundef nonnull %3)
  ret i1 %9
}